target datalayout = "e-m:e-p270:32:32-p271:32:32-p272:64:64-i64:64-i128:128-f80:128-n8:16:32:64-S128"
target triple = "x86_64-pc-linux-gnu"

%"class.gmx::SimulationSignaller" = type { ptr, ptr, ptr, i8, i8, %"struct.std::array" }
%"struct.std::array" = type { [3 x float] }
%"class.gmx::ArrayRef" = type { %"struct.gmx::ArrayRefIter", %"struct.gmx::ArrayRefIter" }
%"struct.gmx::ArrayRefIter" = type { ptr }
%class.anon = type { i8 }
%"class.gmx::SimulationSignal" = type { i8, i8, i8 }
%"struct.std::array.0" = type { [3 x %"class.gmx::SimulationSignal"] }

; Function Attrs: mustprogress nounwind uwtable
define linkonce_odr noundef ptr @_ZNSt14__array_traitsIN3gmx16SimulationSignalELm3EE6_S_ptrERA3_KS1_(ptr noundef nonnull align 1 dereferenceable(9) %0) #0 comdat align 2 {
  %2 = alloca ptr, align 8
  store ptr %0, ptr %2, align 8, !tbaa !26
  %3 = load ptr, ptr %2, align 8, !tbaa !26
  %4 = getelementptr inbounds [3 x %"class.gmx::SimulationSignal"], ptr %3, i64 0, i64 0
  ret ptr %4
}

; Function Attrs: mustprogress nounwind uwtable
define linkonce_odr noundef ptr @_ZNSt14__array_traitsIfLm3EE6_S_ptrERA3_Kf(ptr noundef nonnull align 4 dereferenceable(12) %0) #0 comdat align 2 {
  %2 = alloca ptr, align 8
  store ptr %0, ptr %2, align 8, !tbaa !28
  %3 = load ptr, ptr %2, align 8, !tbaa !28
  %4 = getelementptr inbounds [3 x float], ptr %3, i64 0, i64 0
  ret ptr %4
}

; Function Attrs: mustprogress nounwind willreturn memory(none) uwtable
define linkonce_odr noundef ptr @_ZNSt5arrayIN3gmx16SimulationSignalELm3EE4dataEv(ptr noundef nonnull align 1 dereferenceable(9) %0) #4 comdat align 2 {
  %2 = alloca ptr, align 8
  store ptr %0, ptr %2, align 8, !tbaa !9
  %3 = load ptr, ptr %2, align 8
  %4 = getelementptr inbounds nuw %"struct.std::array.0", ptr %3, i32 0, i32 0
  %5 = call noundef ptr @_ZNSt14__array_traitsIN3gmx16SimulationSignalELm3EE6_S_ptrERA3_KS1_(ptr noundef nonnull align 1 dereferenceable(9) %4) #8
  ret ptr %5
}

; Function Attrs: mustprogress nounwind willreturn memory(none) uwtable
define linkonce_odr noundef i64 @_ZNKSt5arrayIfLm3EE4sizeEv(ptr noundef nonnull align 4 dereferenceable(12) %0) #4 comdat align 2 {
  %2 = alloca ptr, align 8
  store ptr %0, ptr %2, align 8, !tbaa !34
  ret i64 3
}

; Function Attrs: mustprogress nounwind uwtable
define linkonce_odr void @_ZN3gmx12ArrayRefIterIfEC2EPf(ptr noundef nonnull align 8 dereferenceable(8) %0, ptr noundef %1) unnamed_addr #0 comdat align 2 {
  %3 = alloca ptr, align 8
  %4 = alloca ptr, align 8
  store ptr %0, ptr %3, align 8, !tbaa !41
  store ptr %1, ptr %4, align 8, !tbaa !28
  %5 = load ptr, ptr %3, align 8
  %6 = getelementptr inbounds nuw %"struct.gmx::ArrayRefIter", ptr %5, i32 0, i32 0
  %7 = load ptr, ptr %4, align 8, !tbaa !28
  store ptr %7, ptr %6, align 8, !tbaa !43
  ret void
}

; Function Attrs: mustprogress nounwind willreturn memory(none) uwtable
define linkonce_odr noundef ptr @_ZNSt5arrayIfLm3EE4dataEv(ptr noundef nonnull align 4 dereferenceable(12) %0) #4 comdat align 2 {
  %2 = alloca ptr, align 8
  store ptr %0, ptr %2, align 8, !tbaa !34
  %3 = load ptr, ptr %2, align 8
  %4 = getelementptr inbounds nuw %"struct.std::array", ptr %3, i32 0, i32 0
  %5 = call noundef ptr @_ZNSt14__array_traitsIfLm3EE6_S_ptrERA3_Kf(ptr noundef nonnull align 4 dereferenceable(12) %4) #8
  ret ptr %5
}

; Function Attrs: inlinehint mustprogress nounwind uwtable
define internal noundef signext i8 @"_ZZN3gmx19SimulationSignaller22getCommunicationBufferEvENK3$_0clERKNS_16SimulationSignalE"(ptr noundef nonnull align 1 dereferenceable(1) %0, ptr noundef nonnull align 1 dereferenceable(3) %1) #3 align 2 {
  %3 = alloca ptr, align 8
  %4 = alloca ptr, align 8
  store ptr %0, ptr %3, align 8, !tbaa !38
  store ptr %1, ptr %4, align 8, !tbaa !26
  %5 = load ptr, ptr %4, align 8, !tbaa !26
  %6 = getelementptr inbounds nuw %"class.gmx::SimulationSignal", ptr %5, i32 0, i32 0
  %7 = load i8, ptr %6, align 1, !tbaa !39
  ret i8 %7
}

; Function Attrs: mustprogress nounwind willreturn memory(none) uwtable
define linkonce_odr noundef ptr @_ZNSt5arrayIfLm3EE5beginEv(ptr noundef nonnull align 4 dereferenceable(12) %0) #4 comdat align 2 {
  %2 = alloca ptr, align 8
  store ptr %0, ptr %2, align 8, !tbaa !34
  %3 = load ptr, ptr %2, align 8
  %4 = call noundef ptr @_ZNSt5arrayIfLm3EE4dataEv(ptr noundef nonnull align 4 dereferenceable(12) %3) #7
  ret ptr %4
}

; Function Attrs: mustprogress nounwind willreturn memory(none) uwtable
define linkonce_odr noundef ptr @_ZNSt5arrayIN3gmx16SimulationSignalELm3EE3endEv(ptr noundef nonnull align 1 dereferenceable(9) %0) #4 comdat align 2 {
  %2 = alloca ptr, align 8
  store ptr %0, ptr %2, align 8, !tbaa !9
  %3 = load ptr, ptr %2, align 8
  %4 = call noundef ptr @_ZNSt5arrayIN3gmx16SimulationSignalELm3EE4dataEv(ptr noundef nonnull align 1 dereferenceable(9) %3) #7
  %5 = getelementptr inbounds nuw %"class.gmx::SimulationSignal", ptr %4, i64 3
  ret ptr %5
}

; Function Attrs: mustprogress nounwind willreturn memory(none) uwtable
define linkonce_odr noundef ptr @_ZNSt5arrayIN3gmx16SimulationSignalELm3EE5beginEv(ptr noundef nonnull align 1 dereferenceable(9) %0) #4 comdat align 2 {
  %2 = alloca ptr, align 8
  store ptr %0, ptr %2, align 8, !tbaa !9
  %3 = load ptr, ptr %2, align 8
  %4 = call noundef ptr @_ZNSt5arrayIN3gmx16SimulationSignalELm3EE4dataEv(ptr noundef nonnull align 1 dereferenceable(9) %3) #7
  ret ptr %4
}

; Function Attrs: mustprogress nounwind uwtable
define linkonce_odr void @_ZN3gmx8ArrayRefIfEC2Ev(ptr noundef nonnull align 8 dereferenceable(16) %0) unnamed_addr #0 comdat align 2 {
  %2 = alloca ptr, align 8
  store ptr %0, ptr %2, align 8, !tbaa !36
  %3 = load ptr, ptr %2, align 8
  %4 = getelementptr inbounds nuw %"class.gmx::ArrayRef", ptr %3, i32 0, i32 0
  call void @_ZN3gmx12ArrayRefIterIfEC2EPf(ptr noundef nonnull align 8 dereferenceable(8) %4, ptr noundef null) #8
  %5 = getelementptr inbounds nuw %"class.gmx::ArrayRef", ptr %3, i32 0, i32 1
  call void @_ZN3gmx12ArrayRefIterIfEC2EPf(ptr noundef nonnull align 8 dereferenceable(8) %5, ptr noundef null) #8
  ret void
}

; Function Attrs: mustprogress nounwind uwtable
define linkonce_odr void @_ZN3gmx8ArrayRefIfEC2IRSt5arrayIfLm3EEvEEOT_(ptr noundef nonnull align 8 dereferenceable(16) %0, ptr noundef nonnull align 4 dereferenceable(12) %1) unnamed_addr #0 comdat align 2 {
  %3 = alloca ptr, align 8
  %4 = alloca ptr, align 8
  store ptr %0, ptr %3, align 8, !tbaa !36
  store ptr %1, ptr %4, align 8, !tbaa !34
  %5 = load ptr, ptr %3, align 8
  %6 = getelementptr inbounds nuw %"class.gmx::ArrayRef", ptr %5, i32 0, i32 0
  %7 = load ptr, ptr %4, align 8, !tbaa !34
  %8 = call noundef ptr @_ZNSt5arrayIfLm3EE4dataEv(ptr noundef nonnull align 4 dereferenceable(12) %7) #7
  call void @_ZN3gmx12ArrayRefIterIfEC2EPf(ptr noundef nonnull align 8 dereferenceable(8) %6, ptr noundef %8) #8
  %9 = getelementptr inbounds nuw %"class.gmx::ArrayRef", ptr %5, i32 0, i32 1
  %10 = load ptr, ptr %4, align 8, !tbaa !34
  %11 = call noundef ptr @_ZNSt5arrayIfLm3EE4dataEv(ptr noundef nonnull align 4 dereferenceable(12) %10) #7
  %12 = load ptr, ptr %4, align 8, !tbaa !34
  %13 = call noundef i64 @_ZNKSt5arrayIfLm3EE4sizeEv(ptr noundef nonnull align 4 dereferenceable(12) %12) #7
  %14 = getelementptr inbounds nuw float, ptr %11, i64 %13
  call void @_ZN3gmx12ArrayRefIterIfEC2EPf(ptr noundef nonnull align 8 dereferenceable(8) %9, ptr noundef %14) #8
  ret void
}

; Function Attrs: mustprogress uwtable
define internal noundef ptr @"_ZSt9transformIPN3gmx16SimulationSignalEPfZNS0_19SimulationSignaller22getCommunicationBufferEvE3$_0ET0_T_S7_S6_T1_"(ptr noundef %0, ptr noundef %1, ptr noundef %2) #2 {
  %4 = alloca %class.anon, align 1
  %5 = alloca ptr, align 8
  %6 = alloca ptr, align 8
  %7 = alloca ptr, align 8
  store ptr %0, ptr %5, align 8, !tbaa !26
  store ptr %1, ptr %6, align 8, !tbaa !26
  store ptr %2, ptr %7, align 8, !tbaa !28
  br label %8

8:                                                ; preds = %17, %3
  %9 = load ptr, ptr %5, align 8, !tbaa !26
  %10 = load ptr, ptr %6, align 8, !tbaa !26
  %11 = icmp ne ptr %9, %10
  br i1 %11, label %12, label %22

12:                                               ; preds = %8
  %13 = load ptr, ptr %5, align 8, !tbaa !26
  %14 = call noundef signext i8 @"_ZZN3gmx19SimulationSignaller22getCommunicationBufferEvENK3$_0clERKNS_16SimulationSignalE"(ptr noundef nonnull align 1 dereferenceable(1) %4, ptr noundef nonnull align 1 dereferenceable(3) %13)
  %15 = sitofp i8 %14 to float
  %16 = load ptr, ptr %7, align 8, !tbaa !28
  store float %15, ptr %16, align 4, !tbaa !30
  br label %17

17:                                               ; preds = %12
  %18 = load ptr, ptr %5, align 8, !tbaa !26
  %19 = getelementptr inbounds nuw %"class.gmx::SimulationSignal", ptr %18, i32 1
  store ptr %19, ptr %5, align 8, !tbaa !26
  %20 = load ptr, ptr %7, align 8, !tbaa !28
  %21 = getelementptr inbounds nuw float, ptr %20, i32 1
  store ptr %21, ptr %7, align 8, !tbaa !28
  br label %8, !llvm.loop !32

22:                                               ; preds = %8
  %23 = load ptr, ptr %7, align 8, !tbaa !28
  ret ptr %23
}

; Function Attrs: inlinehint mustprogress nounwind uwtable
define linkonce_odr noundef ptr @_ZSt5beginISt5arrayIfLm3EEEDTcldtfp_5beginEERT_(ptr noundef nonnull align 4 dereferenceable(12) %0) #3 comdat {
  %2 = alloca ptr, align 8
  store ptr %0, ptr %2, align 8, !tbaa !34
  %3 = load ptr, ptr %2, align 8, !tbaa !34
  %4 = call noundef ptr @_ZNSt5arrayIfLm3EE5beginEv(ptr noundef nonnull align 4 dereferenceable(12) %3) #7
  ret ptr %4
}

; Function Attrs: inlinehint mustprogress nounwind uwtable
define linkonce_odr noundef ptr @_ZSt3endISt5arrayIN3gmx16SimulationSignalELm3EEEDTcldtfp_3endEERT_(ptr noundef nonnull align 1 dereferenceable(9) %0) #3 comdat {
  %2 = alloca ptr, align 8
  store ptr %0, ptr %2, align 8, !tbaa !9
  %3 = load ptr, ptr %2, align 8, !tbaa !9
  %4 = call noundef ptr @_ZNSt5arrayIN3gmx16SimulationSignalELm3EE3endEv(ptr noundef nonnull align 1 dereferenceable(9) %3) #7
  ret ptr %4
}

; Function Attrs: inlinehint mustprogress nounwind uwtable
define linkonce_odr noundef ptr @_ZSt5beginISt5arrayIN3gmx16SimulationSignalELm3EEEDTcldtfp_5beginEERT_(ptr noundef nonnull align 1 dereferenceable(9) %0) #3 comdat {
  %2 = alloca ptr, align 8
  store ptr %0, ptr %2, align 8, !tbaa !9
  %3 = load ptr, ptr %2, align 8, !tbaa !9
  %4 = call noundef ptr @_ZNSt5arrayIN3gmx16SimulationSignalELm3EE5beginEv(ptr noundef nonnull align 1 dereferenceable(9) %3) #7
  ret ptr %4
}

; Function Attrs: mustprogress uwtable
define { ptr, ptr } @_ZN3gmx19SimulationSignaller22getCommunicationBufferEv(ptr noundef nonnull align 8 dereferenceable(40) %0) #2 align 2 {
  %2 = alloca %"class.gmx::ArrayRef", align 8
  %3 = alloca ptr, align 8
  store ptr %0, ptr %3, align 8, !tbaa !4
  %4 = load ptr, ptr %3, align 8
  %5 = getelementptr inbounds nuw %"class.gmx::SimulationSignaller", ptr %4, i32 0, i32 4
  %6 = load i8, ptr %5, align 1, !tbaa !25, !range !22, !noundef !23
  %7 = trunc i8 %6 to i1
  br i1 %7, label %8, label %19

8:                                                ; preds = %1
  %9 = getelementptr inbounds nuw %"class.gmx::SimulationSignaller", ptr %4, i32 0, i32 0
  %10 = load ptr, ptr %9, align 8, !tbaa !17
  %11 = call noundef ptr @_ZSt5beginISt5arrayIN3gmx16SimulationSignalELm3EEEDTcldtfp_5beginEERT_(ptr noundef nonnull align 1 dereferenceable(9) %10)
  %12 = getelementptr inbounds nuw %"class.gmx::SimulationSignaller", ptr %4, i32 0, i32 0
  %13 = load ptr, ptr %12, align 8, !tbaa !17
  %14 = call noundef ptr @_ZSt3endISt5arrayIN3gmx16SimulationSignalELm3EEEDTcldtfp_3endEERT_(ptr noundef nonnull align 1 dereferenceable(9) %13)
  %15 = getelementptr inbounds nuw %"class.gmx::SimulationSignaller", ptr %4, i32 0, i32 5
  %16 = call noundef ptr @_ZSt5beginISt5arrayIfLm3EEEDTcldtfp_5beginEERT_(ptr noundef nonnull align 4 dereferenceable(12) %15)
  %17 = call noundef ptr @"_ZSt9transformIPN3gmx16SimulationSignalEPfZNS0_19SimulationSignaller22getCommunicationBufferEvE3$_0ET0_T_S7_S6_T1_"(ptr noundef %11, ptr noundef %14, ptr noundef %16)
  %18 = getelementptr inbounds nuw %"class.gmx::SimulationSignaller", ptr %4, i32 0, i32 5
  call void @_ZN3gmx8ArrayRefIfEC2IRSt5arrayIfLm3EEvEEOT_(ptr noundef nonnull align 8 dereferenceable(16) %2, ptr noundef nonnull align 4 dereferenceable(12) %18)
  br label %20

19:                                               ; preds = %1
  call void @_ZN3gmx8ArrayRefIfEC2Ev(ptr noundef nonnull align 8 dereferenceable(16) %2)
  br label %20

20:                                               ; preds = %19, %8
  %21 = load { ptr, ptr }, ptr %2, align 8
  ret { ptr, ptr } %21
}