; Function Attrs: mustprogress nofree norecurse nosync nounwind memory(read, argmem: readwrite, inaccessiblemem: none) uwtable
define { ptr, ptr } @_ZN3gmx19SimulationSignaller22getCommunicationBufferEv(ptr noundef nonnull align 8 dereferenceable(40) %0) local_unnamed_addr #2 align 2 {
  %2 = getelementptr inbounds nuw i8, ptr %0, i64 25
  %3 = load i8, ptr %2, align 1, !tbaa !17, !range !18, !noundef !19
  %4 = trunc nuw i8 %3 to i1
  br i1 %4, label %5, label %11

5:                                                ; preds = %1
  %6 = load ptr, ptr %0, align 8, !tbaa !4
  %7 = getelementptr inbounds nuw i8, ptr %0, i64 28
  br label %.lr.ph.i

.lr.ph.i:                                         ; preds = %5, %.lr.ph.i
  %.010.i = phi ptr [ %9, %.lr.ph.i ], [ %7, %5 ]
  %.079.i.idx = phi i64 [ %.079.i.add, %.lr.ph.i ], [ 0, %5 ]
  %.079.i.ptr = getelementptr inbounds nuw i8, ptr %6, i64 %.079.i.idx
  %.07.val.i = load i8, ptr %.079.i.ptr, align 1, !tbaa !20
  %8 = sitofp i8 %.07.val.i to float
  store float %8, ptr %.010.i, align 4, !tbaa !22
  %.079.i.add = add nuw nsw i64 %.079.i.idx, 3
  %9 = getelementptr inbounds nuw i8, ptr %.010.i, i64 4
  %.not.i = icmp eq i64 %.079.i.add, 9
  br i1 %.not.i, label %"_ZSt9transformIPN3gmx16SimulationSignalEPfZNS0_19SimulationSignaller22getCommunicationBufferEvE3$_0ET0_T_S7_S6_T1_.exit", label %.lr.ph.i, !llvm.loop !24

"_ZSt9transformIPN3gmx16SimulationSignalEPfZNS0_19SimulationSignaller22getCommunicationBufferEvE3$_0ET0_T_S7_S6_T1_.exit": ; preds = %.lr.ph.i
  %10 = getelementptr inbounds nuw i8, ptr %0, i64 40
  br label %11

11:                                               ; preds = %1, %"_ZSt9transformIPN3gmx16SimulationSignalEPfZNS0_19SimulationSignaller22getCommunicationBufferEvE3$_0ET0_T_S7_S6_T1_.exit"
  %.sroa.0.0 = phi ptr [ %7, %"_ZSt9transformIPN3gmx16SimulationSignalEPfZNS0_19SimulationSignaller22getCommunicationBufferEvE3$_0ET0_T_S7_S6_T1_.exit" ], [ null, %1 ]
  %.sroa.3.0 = phi ptr [ %10, %"_ZSt9transformIPN3gmx16SimulationSignalEPfZNS0_19SimulationSignaller22getCommunicationBufferEvE3$_0ET0_T_S7_S6_T1_.exit" ], [ null, %1 ]
  %.fca.0.insert = insertvalue { ptr, ptr } poison, ptr %.sroa.0.0, 0
  %.fca.1.insert = insertvalue { ptr, ptr } %.fca.0.insert, ptr %.sroa.3.0, 1
  ret { ptr, ptr } %.fca.1.insert
}